target datalayout = "e-m:e-p270:32:32-p271:32:32-p272:64:64-i64:64-i128:128-f80:128-n8:16:32:64-S128"
target triple = "x86_64-unknown-linux-gnu"

%"class.cvc5::internal::LastExceptionBuffer" = type { ptr }

; Function Attrs: mustprogress nounwind uwtable
define void @_ZN4cvc58internal19LastExceptionBuffer11setContentsEPKc(ptr noundef nonnull align 8 dereferenceable(8) %this, ptr noundef %string) #3 align 2 {
entry:
  %this.addr = alloca ptr, align 8
  %string.addr = alloca ptr, align 8
  store ptr %this, ptr %this.addr, align 8
  store ptr %string, ptr %string.addr, align 8
  %this1 = load ptr, ptr %this.addr, align 8
  %d_contents = getelementptr inbounds %"class.cvc5::internal::LastExceptionBuffer", ptr %this1, i32 0, i32 0
  %0 = load ptr, ptr %d_contents, align 8
  %cmp = icmp ne ptr %0, null
  br i1 %cmp, label %if.then, label %if.end

if.then:                                          ; preds = %entry
  %d_contents2 = getelementptr inbounds %"class.cvc5::internal::LastExceptionBuffer", ptr %this1, i32 0, i32 0
  %1 = load ptr, ptr %d_contents2, align 8
  call void @free(ptr noundef %1) #11
  %d_contents3 = getelementptr inbounds %"class.cvc5::internal::LastExceptionBuffer", ptr %this1, i32 0, i32 0
  store ptr null, ptr %d_contents3, align 8
  br label %if.end

if.end:                                           ; preds = %if.then, %entry
  %2 = load ptr, ptr %string.addr, align 8
  %cmp4 = icmp ne ptr %2, null
  br i1 %cmp4, label %if.then5, label %if.end7

if.then5:                                         ; preds = %if.end
  %3 = load ptr, ptr %string.addr, align 8
  %call = call noalias ptr @strdup(ptr noundef %3) #11
  %d_contents6 = getelementptr inbounds %"class.cvc5::internal::LastExceptionBuffer", ptr %this1, i32 0, i32 0
  store ptr %call, ptr %d_contents6, align 8
  br label %if.end7

if.end7:                                          ; preds = %if.then5, %if.end
  ret void
}