; Function Attrs: mustprogress nounwind willreturn uwtable
define void @_ZN4cvc58internal19LastExceptionBuffer11setContentsEPKc(ptr nocapture noundef nonnull align 8 dereferenceable(8) %this, ptr noundef readonly %string) local_unnamed_addr #4 align 2 {
entry:
  %0 = load ptr, ptr %this, align 8
  %cmp.not = icmp eq ptr %0, null
  br i1 %cmp.not, label %if.end, label %if.then

if.then:                                          ; preds = %entry
  tail call void @free(ptr noundef nonnull %0) #16
  store ptr null, ptr %this, align 8
  br label %if.end

if.end:                                           ; preds = %if.then, %entry
  %cmp4.not = icmp eq ptr %string, null
  br i1 %cmp4.not, label %if.end7, label %if.then5

if.then5:                                         ; preds = %if.end
  %call = tail call noalias ptr @strdup(ptr noundef nonnull %string) #16
  store ptr %call, ptr %this, align 8
  br label %if.end7

if.end7:                                          ; preds = %if.then5, %if.end
  ret void
}